target datalayout = "e-m:e-p270:32:32-p271:32:32-p272:64:64-i64:64-i128:128-f80:128-n8:16:32:64-S128"
target triple = "x86_64-pc-linux-gnu"

%struct.bignum_st = type { ptr, i32, i32, i32, i32 }
%struct.ec_point_st = type { ptr, %struct.bignum_st, %struct.bignum_st, %struct.bignum_st }

; Function Attrs: nounwind uwtable
define hidden i32 @ec_GFp_simple_point_copy(ptr noundef %0, ptr noundef %1) #0 {
  %3 = alloca i32, align 4
  %4 = alloca ptr, align 8
  %5 = alloca ptr, align 8
  store ptr %0, ptr %4, align 8, !tbaa !28
  store ptr %1, ptr %5, align 8, !tbaa !28
  %6 = load ptr, ptr %4, align 8, !tbaa !28
  %7 = getelementptr inbounds nuw %struct.ec_point_st, ptr %6, i32 0, i32 1
  %8 = load ptr, ptr %5, align 8, !tbaa !28
  %9 = getelementptr inbounds nuw %struct.ec_point_st, ptr %8, i32 0, i32 1
  %10 = call ptr @BN_copy(ptr noundef %7, ptr noundef %9)
  %11 = icmp ne ptr %10, null
  br i1 %11, label %12, label %26

12:                                               ; preds = %2
  %13 = load ptr, ptr %4, align 8, !tbaa !28
  %14 = getelementptr inbounds nuw %struct.ec_point_st, ptr %13, i32 0, i32 2
  %15 = load ptr, ptr %5, align 8, !tbaa !28
  %16 = getelementptr inbounds nuw %struct.ec_point_st, ptr %15, i32 0, i32 2
  %17 = call ptr @BN_copy(ptr noundef %14, ptr noundef %16)
  %18 = icmp ne ptr %17, null
  br i1 %18, label %19, label %26

19:                                               ; preds = %12
  %20 = load ptr, ptr %4, align 8, !tbaa !28
  %21 = getelementptr inbounds nuw %struct.ec_point_st, ptr %20, i32 0, i32 3
  %22 = load ptr, ptr %5, align 8, !tbaa !28
  %23 = getelementptr inbounds nuw %struct.ec_point_st, ptr %22, i32 0, i32 3
  %24 = call ptr @BN_copy(ptr noundef %21, ptr noundef %23)
  %25 = icmp ne ptr %24, null
  br i1 %25, label %27, label %26

26:                                               ; preds = %19, %12, %2
  store i32 0, ptr %3, align 4
  br label %28

27:                                               ; preds = %19
  store i32 1, ptr %3, align 4
  br label %28

28:                                               ; preds = %27, %26
  %29 = load i32, ptr %3, align 4
  ret i32 %29
}