; Function Attrs: nounwind uwtable
define hidden range(i32 0, 2) i32 @ec_GFp_simple_point_copy(ptr noundef %0, ptr noundef %1) local_unnamed_addr #0 {
  %3 = getelementptr inbounds nuw i8, ptr %0, i64 8
  %4 = getelementptr inbounds nuw i8, ptr %1, i64 8
  %5 = tail call ptr @BN_copy(ptr noundef nonnull %3, ptr noundef nonnull %4) #5
  %.not = icmp eq ptr %5, null
  br i1 %.not, label %14, label %6

6:                                                ; preds = %2
  %7 = getelementptr inbounds nuw i8, ptr %0, i64 32
  %8 = getelementptr inbounds nuw i8, ptr %1, i64 32
  %9 = tail call ptr @BN_copy(ptr noundef nonnull %7, ptr noundef nonnull %8) #5
  %.not6 = icmp eq ptr %9, null
  br i1 %.not6, label %14, label %10

10:                                               ; preds = %6
  %11 = getelementptr inbounds nuw i8, ptr %0, i64 56
  %12 = getelementptr inbounds nuw i8, ptr %1, i64 56
  %13 = tail call ptr @BN_copy(ptr noundef nonnull %11, ptr noundef nonnull %12) #5
  %.not7 = icmp ne ptr %13, null
  %spec.select = zext i1 %.not7 to i32
  br label %14

14:                                               ; preds = %10, %2, %6
  %.0 = phi i32 [ 0, %6 ], [ 0, %2 ], [ %spec.select, %10 ]
  ret i32 %.0
}